; Function Attrs: mustprogress nofree norecurse nosync nounwind willreturn memory(read, inaccessiblemem: none) uwtable
define internal noundef zeroext i1 @_ZNSt17_Function_handlerIFbP11AstVarScopeEZN7V3Sched12_GLOBAL__N_117SchedGraphBuilderC1ERKNS3_12LogicByScopeES8_S8_EUlS1_E1_E9_M_invokeERKSt9_Any_dataOS1_(ptr nocapture nonnull readnone align 8 %0, ptr nocapture noundef nonnull readonly align 8 dereferenceable(8) %1) #16 align 2 {
  %.val = load ptr, ptr %1, align 8
  %3 = getelementptr i8, ptr %.val, i64 116
  %.val.val = load i32, ptr %3, align 4
  %4 = getelementptr i8, ptr %.val, i64 120
  %.val.val2 = load i64, ptr %4, align 8
  %5 = load i32, ptr @_ZN12VNUser2InUse12s_userCntGblE, align 4
  %6 = icmp ne i32 %5, %.val.val
  %7 = and i64 %.val.val2, 4294967295
  %.not1.i.i.i = icmp eq i64 %7, 0
  %.not.i.i.i = select i1 %6, i1 true, i1 %.not1.i.i.i
  ret i1 %.not.i.i.i
}